target datalayout = "e-m:e-p270:32:32-p271:32:32-p272:64:64-i64:64-i128:128-f80:128-n8:16:32:64-S128"
target triple = "x86_64-pc-linux-gnu"

%"class.sat::literal" = type { i32 }
%class.symbol = type { ptr }
%"class.smt::theory_lra" = type { %"class.smt::theory.base", %"class.smt::theory_opt", ptr }
%"class.smt::theory.base" = type <{ ptr, i32, [4 x i8], ptr, ptr, %class.ptr_vector, %class.svector, i32, i8 }>
%class.ptr_vector = type { %class.vector }
%class.vector = type { ptr }
%class.svector = type { %class.vector.0 }
%class.vector.0 = type { ptr }
%"class.smt::theory_opt" = type { ptr }
%class.statistics = type { %class.svector.1, %class.svector.3 }
%class.svector.1 = type { %class.vector.2 }
%class.vector.2 = type { ptr }
%class.svector.3 = type { %class.vector.4 }
%class.vector.4 = type { ptr }
%class.stopwatch = type <{ %"class.std::chrono::time_point", %"class.std::chrono::duration", i8, [7 x i8] }>
%"class.std::chrono::time_point" = type { %"class.std::chrono::duration" }
%"class.std::chrono::duration" = type { i64 }
%class.arith_util = type { ptr, ptr }
%class.u_map = type { %class.map }
%class.map = type { %class.table2map }
%class.table2map = type { %class.core_hashtable.10 }
%class.core_hashtable.10 = type <{ ptr, i32, i32, i32, [4 x i8] }>
%class.obj_ref = type { ptr, ptr }
%class.ptr_vector.53 = type { %class.vector.54 }
%class.vector.54 = type { ptr }
%class.svector.88 = type { %class.vector.89 }
%class.vector.89 = type { ptr }
%class.random_gen = type { i32 }
%class.ptr_vector.6 = type { %class.vector.7 }
%class.vector.7 = type { ptr }
%class.svector.194 = type { %class.vector.195 }
%class.vector.195 = type { ptr }
%class.ref_vector = type { %class.ref_vector_core }
%class.ref_vector_core = type { %class.ref_manager_wrapper, %class.ptr_vector.6 }
%class.ref_manager_wrapper = type { ptr }
%class.uint_set = type { %class.svector }
%"struct.smt::theory_lra::imp::var_value_hash" = type { ptr }
%"struct.smt::theory_lra::imp::var_value_eq" = type { ptr }
%"class.smt::theory_lra::imp" = type { ptr, ptr, %class.arith_util, %"class.smt::arith_eq_adapter", %class.vector.295, %class.ptr_vector.296, i32, %class.vector.298, i32, i32, i32, i32, %class.svector.299, %class.svector.194, %class.svector.291, %class.svector.88, %class.svector.301, %class.ptr_vector.6, %class.ptr_vector.53, %class.ptr_vector.53, %class.vector.303, %class.u_map.304, %class.vector.303, %class.svector, %class.svector, i32, %class.svector, %class.svector.309, i32, %class.indexed_uint_set, i32, %class.scoped_ptr.311, %class.scoped_ptr.312, %class.int_hashtable, %class.svector.315, %"struct.lp_api::stats", ptr, %class.scoped_ptr.317, %"class.smt::theory_lra::imp::resource_limit", %class.ptr_vector.318, %class.symbol, %class.vector.320, %"class.std::vector", %"class.lp::lp_bound_propagator", %class.vector.295, %class.map.327, %class.vector.331, i8, %"class.nla::lemma", i8, %class.svector.194, %class.svector, %class.vector.331, %class.vector.331, %class.vector.331, %"class.lp::explanation", %class.svector.194, %class.svector.291, %class.vector.320, i32, i32, %"class.sat::literal", %class.ref_vector, %class.obj_ref }
%"class.smt::arith_eq_adapter" = type { %"struct.smt::arith_eq_adapter_stats", ptr, ptr, %class.obj_pair_map.286, %class.svector.291, %class.svector.293 }
%"struct.smt::arith_eq_adapter_stats" = type { i32 }
%class.obj_pair_map.286 = type { %class.core_hashtable.287 }
%class.core_hashtable.287 = type <{ ptr, i32, i32, i32, [4 x i8] }>
%class.svector.293 = type { %class.vector.294 }
%class.vector.294 = type { ptr }
%class.ptr_vector.296 = type { %class.vector.297 }
%class.vector.297 = type { ptr }
%class.vector.298 = type { ptr }
%class.svector.299 = type { %class.vector.300 }
%class.vector.300 = type { ptr }
%class.svector.301 = type { %class.vector.302 }
%class.vector.302 = type { ptr }
%class.u_map.304 = type { %class.map.305 }
%class.map.305 = type { %class.table2map.306 }
%class.table2map.306 = type { %class.core_hashtable.307 }
%class.core_hashtable.307 = type <{ ptr, i32, i32, i32, [4 x i8] }>
%class.vector.303 = type { ptr }
%class.svector.309 = type { %class.vector.310 }
%class.vector.310 = type { ptr }
%class.indexed_uint_set = type { i32, %class.svector, %class.svector }
%class.scoped_ptr.311 = type { ptr }
%class.scoped_ptr.312 = type { ptr }
%class.int_hashtable = type { %class.core_hashtable.base.314, [4 x i8] }
%class.core_hashtable.base.314 = type <{ %"struct.smt::theory_lra::imp::var_value_hash", %"struct.smt::theory_lra::imp::var_value_eq", ptr, i32, i32, i32 }>
%class.svector.315 = type { %class.vector.316 }
%class.vector.316 = type { ptr }
%"struct.lp_api::stats" = type { i32, i32, i32, i32, i32, i32, i32, i32, i32, i32, i32, i32, i32, i32, i32, i32 }
%class.scoped_ptr.317 = type { ptr }
%"class.smt::theory_lra::imp::resource_limit" = type { %"class.lp::lp_resource_limit", ptr }
%"class.lp::lp_resource_limit" = type { ptr }
%class.ptr_vector.318 = type { %class.vector.319 }
%class.vector.319 = type { ptr }
%"class.std::vector" = type { %"struct.std::_Vector_base" }
%"struct.std::_Vector_base" = type { %"struct.std::_Vector_base<lp::implied_bound, std_allocator<lp::implied_bound>>::_Vector_impl" }
%"struct.std::_Vector_base<lp::implied_bound, std_allocator<lp::implied_bound>>::_Vector_impl" = type { %"struct.std::_Vector_base<lp::implied_bound, std_allocator<lp::implied_bound>>::_Vector_impl_data" }
%"struct.std::_Vector_base<lp::implied_bound, std_allocator<lp::implied_bound>>::_Vector_impl_data" = type { ptr, ptr, ptr }
%"class.lp::lp_bound_propagator" = type { %class.uint_set, %class.u_map, %class.u_map, ptr, ptr, %class.map.321, %class.map.321, %class.map.321, ptr }
%class.map.321 = type { %class.table2map.322 }
%class.table2map.322 = type { %class.core_hashtable.323 }
%class.core_hashtable.323 = type <{ ptr, i32, i32, i32, [4 x i8] }>
%class.vector.295 = type { ptr }
%class.map.327 = type { %class.table2map.328 }
%class.table2map.328 = type { %class.core_hashtable.329 }
%class.core_hashtable.329 = type <{ ptr, i32, i32, i32, [4 x i8] }>
%"class.nla::lemma" = type { %class.vector.332, %"class.lp::explanation" }
%class.vector.332 = type { ptr }
%class.vector.331 = type { ptr }
%"class.lp::explanation" = type { %class.vector.331, %class.hashtable }
%class.hashtable = type { %class.core_hashtable.base.334, [4 x i8] }
%class.core_hashtable.base.334 = type <{ ptr, i32, i32, i32 }>
%class.svector.291 = type { %class.vector.292 }
%class.vector.292 = type { ptr }
%class.vector.320 = type { ptr }
%"struct.lp::statistics" = type { i32, i32, i32, i32, i32, i32, i32, i32, i32, i32, i32, i32, i32, i32, i32, i32, i32, i32, i32, i32, i32, i32, i32, i32, i32, i32, i32, i32, i32, i32, i32, i32, i32, i32, i32, i32, i32, i32, i32, i32, i32, i32, i32, %class.statistics }
%"struct.lp::lp_settings" = type <{ %"class.lp::lp_settings::default_lp_resource_limit", ptr, ptr, ptr, %"struct.lp::statistics", %class.random_gen, i32, i32, i32, i8, [3 x i8], i32, i8, [3 x i8], i32, double, i8, i8, [2 x i8], i32, i32, i8, [3 x i8], i32, i8, [3 x i8], i32, i8, [3 x i8], i32, i32, i32, i32, i32, i8, [3 x i8], i32, i32, i32, i8, i8, i8, i8, i8, i8, [2 x i8], i32, i32, [4 x i8] }>
%"class.lp::lp_settings::default_lp_resource_limit" = type { %"class.lp::lp_resource_limit", ptr, %class.stopwatch }

; Function Attrs: mustprogress nounwind uwtable
define linkonce_odr hidden noundef ptr @_ZNK10scoped_ptrIN2lp10lar_solverEE3getEv(ptr noundef nonnull align 8 dereferenceable(8) %0) #4 comdat align 2 {
  %2 = alloca ptr, align 8
  store ptr %0, ptr %2, align 8, !tbaa !933
  %3 = load ptr, ptr %2, align 8
  %4 = getelementptr inbounds nuw %class.scoped_ptr.317, ptr %3, i32 0, i32 0
  %5 = load ptr, ptr %4, align 8, !tbaa !935
  ret ptr %5
}

; Function Attrs: mustprogress nounwind uwtable
define linkonce_odr hidden noundef nonnull align 8 dereferenceable(192) ptr @_ZNK2lp11lp_settings5statsEv(ptr noundef nonnull align 8 dereferenceable(380) %0) #4 comdat align 2 {
  %2 = alloca ptr, align 8
  store ptr %0, ptr %2, align 8, !tbaa !866
  %3 = load ptr, ptr %2, align 8
  %4 = getelementptr inbounds nuw %"struct.lp::lp_settings", ptr %3, i32 0, i32 4
  ret ptr %4
}

; Function Attrs: mustprogress nounwind uwtable
define linkonce_odr hidden noundef nonnull align 8 dereferenceable(2128) ptr @_ZNK3smt10theory_lra3imp2lpEv(ptr noundef nonnull align 8 dereferenceable(928) %0) #4 comdat align 2 {
  %2 = alloca ptr, align 8
  store ptr %0, ptr %2, align 8, !tbaa !535
  %3 = load ptr, ptr %2, align 8
  %4 = getelementptr inbounds nuw %"class.smt::theory_lra::imp", ptr %3, i32 0, i32 37
  %5 = call noundef ptr @_ZNK10scoped_ptrIN2lp10lar_solverEE3getEv(ptr noundef nonnull align 8 dereferenceable(8) %4)
  ret ptr %5
}

; Function Attrs: mustprogress uwtable
define linkonce_odr hidden void @_ZNK3smt10theory_lra3imp18collect_statisticsER10statistics(ptr noundef nonnull align 8 dereferenceable(928) %0, ptr noundef nonnull align 8 dereferenceable(16) %1) #6 comdat align 2 {
  %3 = alloca ptr, align 8
  %4 = alloca ptr, align 8
  store ptr %0, ptr %3, align 8, !tbaa !535
  store ptr %1, ptr %4, align 8, !tbaa !744
  %5 = load ptr, ptr %3, align 8
  %6 = getelementptr inbounds nuw %"class.smt::theory_lra::imp", ptr %5, i32 0, i32 3
  %7 = load ptr, ptr %4, align 8, !tbaa !744
  call void @_ZNK3smt16arith_eq_adapter18collect_statisticsER10statistics(ptr noundef nonnull align 8 dereferenceable(64) %6, ptr noundef nonnull align 8 dereferenceable(16) %7)
  %8 = getelementptr inbounds nuw %"class.smt::theory_lra::imp", ptr %5, i32 0, i32 35
  %9 = load ptr, ptr %4, align 8, !tbaa !744
  call void @_ZNK6lp_api5stats18collect_statisticsER10statistics(ptr noundef nonnull align 4 dereferenceable(64) %8, ptr noundef nonnull align 8 dereferenceable(16) %9)
  %10 = call noundef nonnull align 8 dereferenceable(2128) ptr @_ZNK3smt10theory_lra3imp2lpEv(ptr noundef nonnull align 8 dereferenceable(928) %5)
  %11 = call noundef nonnull align 8 dereferenceable(380) ptr @_ZNK2lp10lar_solver8settingsEv(ptr noundef nonnull align 8 dereferenceable(2128) %10)
  %12 = call noundef nonnull align 8 dereferenceable(192) ptr @_ZNK2lp11lp_settings5statsEv(ptr noundef nonnull align 8 dereferenceable(380) %11)
  %13 = load ptr, ptr %4, align 8, !tbaa !744
  call void @_ZNK2lp10statistics18collect_statisticsER10statistics(ptr noundef nonnull align 8 dereferenceable(192) %12, ptr noundef nonnull align 8 dereferenceable(16) %13)
  ret void
}

; Function Attrs: mustprogress uwtable
define hidden void @_ZNK3smt10theory_lra18collect_statisticsER10statistics(ptr noundef nonnull align 8 dereferenceable(72) %0, ptr noundef nonnull align 8 dereferenceable(16) %1) unnamed_addr #6 align 2 {
  %3 = alloca ptr, align 8
  %4 = alloca ptr, align 8
  store ptr %0, ptr %3, align 8, !tbaa !28
  store ptr %1, ptr %4, align 8, !tbaa !744
  %5 = load ptr, ptr %3, align 8
  %6 = getelementptr inbounds nuw %"class.smt::theory_lra", ptr %5, i32 0, i32 2
  %7 = load ptr, ptr %6, align 8, !tbaa !34
  %8 = load ptr, ptr %4, align 8, !tbaa !744
  call void @_ZNK3smt10theory_lra3imp18collect_statisticsER10statistics(ptr noundef nonnull align 8 dereferenceable(928) %7, ptr noundef nonnull align 8 dereferenceable(16) %8)
  ret void
}