; Function Attrs: mustprogress uwtable
define hidden void @_ZNK3smt10theory_lra18collect_statisticsER10statistics(ptr noundef nonnull readonly align 8 captures(none) dereferenceable(72) %0, ptr noundef nonnull align 8 dereferenceable(16) %1) unnamed_addr #4 align 2 {
  %3 = getelementptr inbounds nuw i8, ptr %0, i64 64
  %4 = load ptr, ptr %3, align 8, !tbaa !506
  %5 = getelementptr inbounds nuw i8, ptr %4, i64 32
  tail call void @_ZNK3smt16arith_eq_adapter18collect_statisticsER10statistics(ptr noundef nonnull align 8 dereferenceable(64) %5, ptr noundef nonnull align 8 dereferenceable(16) %1)
  %6 = getelementptr inbounds nuw i8, ptr %4, i64 392
  tail call void @_ZNK6lp_api5stats18collect_statisticsER10statistics(ptr noundef nonnull align 4 dereferenceable(64) %6, ptr noundef nonnull align 8 dereferenceable(16) %1)
  %7 = getelementptr inbounds nuw i8, ptr %4, i64 464
  %8 = load ptr, ptr %7, align 8, !tbaa !557
  %9 = tail call noundef nonnull align 8 dereferenceable(380) ptr @_ZNK2lp10lar_solver8settingsEv(ptr noundef nonnull align 8 dereferenceable(2128) %8)
  %10 = getelementptr inbounds nuw i8, ptr %9, i64 64
  tail call void @_ZNK2lp10statistics18collect_statisticsER10statistics(ptr noundef nonnull align 8 dereferenceable(192) %10, ptr noundef nonnull align 8 dereferenceable(16) %1)
  ret void
}